; Function Attrs: mustprogress nounwind uwtable
define internal void @_ZN9grpc_core12_GLOBAL__N_127IdentityCertificatesWatcherD2Ev(ptr noundef nonnull align 8 dereferenceable(48) %this) unnamed_addr #3 align 2 personality ptr @__gxx_personality_v0 {
entry:
  store ptr getelementptr inbounds ({ [6 x ptr] }, ptr @_ZTVN9grpc_core12_GLOBAL__N_127IdentityCertificatesWatcherE, i64 0, i32 0, i64 2), ptr %this, align 8
  %cert_name_ = getelementptr inbounds i8, ptr %this, i64 16
  tail call void @_ZNSt7__cxx1112basic_stringIcSt11char_traitsIcESaIcEED1Ev(ptr noundef nonnull align 8 dereferenceable(32) %cert_name_) #18
  %parent_ = getelementptr inbounds i8, ptr %this, i64 8
  %0 = load ptr, ptr %parent_, align 8
  %cmp.not.i = icmp eq ptr %0, null
  br i1 %cmp.not.i, label %_ZN9grpc_core13RefCountedPtrI32grpc_tls_certificate_distributorED2Ev.exit, label %if.then.i

if.then.i:                                        ; preds = %entry
  %refs_.i.i = getelementptr inbounds i8, ptr %0, i64 8
  %1 = atomicrmw sub ptr %refs_.i.i, i64 1 acq_rel, align 8
  %cmp.i.i.i = icmp eq i64 %1, 1
  br i1 %cmp.i.i.i, label %if.then.i.i, label %_ZN9grpc_core13RefCountedPtrI32grpc_tls_certificate_distributorED2Ev.exit

if.then.i.i:                                      ; preds = %if.then.i
  %vtable.i.i.i = load ptr, ptr %0, align 8
  %vfn.i.i.i = getelementptr inbounds i8, ptr %vtable.i.i.i, i64 8
  %2 = load ptr, ptr %vfn.i.i.i, align 8
  tail call void %2(ptr noundef nonnull align 8 dereferenceable(160) %0) #18
  br label %_ZN9grpc_core13RefCountedPtrI32grpc_tls_certificate_distributorED2Ev.exit

_ZN9grpc_core13RefCountedPtrI32grpc_tls_certificate_distributorED2Ev.exit: ; preds = %entry, %if.then.i, %if.then.i.i
  ret void
}